target datalayout = "e-m:e-p270:32:32-p271:32:32-p272:64:64-i64:64-i128:128-f80:128-n8:16:32:64-S128"
target triple = "x86_64-pc-linux-gnu"

@.str.133 = private unnamed_addr constant [3 x i8] c"%s\00", align 1
@.str.134 = private unnamed_addr constant [17 x i8] c"Unknown error %d\00", align 1

; Function Attrs: nounwind uwtable
define hidden ptr @Curl_strerror(i32 noundef %0, ptr noundef %1, i64 noundef %2) #0 {
  %4 = alloca ptr, align 8
  %5 = alloca i32, align 4
  %6 = alloca ptr, align 8
  %7 = alloca i64, align 8
  %8 = alloca i32, align 4
  %9 = alloca ptr, align 8
  %10 = alloca i32, align 4
  %11 = alloca [256 x i8], align 16
  %12 = alloca ptr, align 8
  store i32 %0, ptr %5, align 4, !tbaa !3
  store ptr %1, ptr %6, align 8, !tbaa !7
  store i64 %2, ptr %7, align 8, !tbaa !10
  call void @llvm.lifetime.start.p0(i64 4, ptr %8) #6
  %13 = call ptr @__errno_location() #7
  %14 = load i32, ptr %13, align 4, !tbaa !3
  store i32 %14, ptr %8, align 4, !tbaa !3
  call void @llvm.lifetime.start.p0(i64 8, ptr %9) #6
  %15 = load i64, ptr %7, align 8, !tbaa !10
  %16 = icmp ne i64 %15, 0
  br i1 %16, label %18, label %17

17:                                               ; preds = %3
  store ptr null, ptr %4, align 8
  store i32 1, ptr %10, align 4
  br label %76

18:                                               ; preds = %3
  br label %19

19:                                               ; preds = %18
  br label %20

20:                                               ; preds = %19
  br label %21

21:                                               ; preds = %20
  %22 = load ptr, ptr %6, align 8, !tbaa !7
  store i8 0, ptr %22, align 1, !tbaa !12
  call void @llvm.lifetime.start.p0(i64 256, ptr %11) #6
  call void @llvm.lifetime.start.p0(i64 8, ptr %12) #6
  %23 = load i32, ptr %5, align 4, !tbaa !3
  %24 = getelementptr inbounds [256 x i8], ptr %11, i64 0, i64 0
  %25 = call ptr @strerror_r(i32 noundef %23, ptr noundef %24, i64 noundef 256) #6
  store ptr %25, ptr %12, align 8, !tbaa !7
  %26 = load ptr, ptr %12, align 8, !tbaa !7
  %27 = icmp ne ptr %26, null
  br i1 %27, label %28, label %33

28:                                               ; preds = %21
  %29 = load ptr, ptr %6, align 8, !tbaa !7
  %30 = load i64, ptr %7, align 8, !tbaa !10
  %31 = load ptr, ptr %12, align 8, !tbaa !7
  %32 = call i32 (ptr, i64, ptr, ...) @curl_msnprintf(ptr noundef %29, i64 noundef %30, ptr noundef @.str.133, ptr noundef %31)
  br label %38

33:                                               ; preds = %21
  %34 = load ptr, ptr %6, align 8, !tbaa !7
  %35 = load i64, ptr %7, align 8, !tbaa !10
  %36 = load i32, ptr %5, align 4, !tbaa !3
  %37 = call i32 (ptr, i64, ptr, ...) @curl_msnprintf(ptr noundef %34, i64 noundef %35, ptr noundef @.str.134, i32 noundef %36)
  br label %38

38:                                               ; preds = %33, %28
  call void @llvm.lifetime.end.p0(i64 8, ptr %12) #6
  call void @llvm.lifetime.end.p0(i64 256, ptr %11) #6
  %39 = load ptr, ptr %6, align 8, !tbaa !7
  %40 = call ptr @strrchr(ptr noundef %39, i32 noundef 10) #8
  store ptr %40, ptr %9, align 8, !tbaa !7
  %41 = load ptr, ptr %9, align 8, !tbaa !7
  %42 = icmp ne ptr %41, null
  br i1 %42, label %43, label %52

43:                                               ; preds = %38
  %44 = load ptr, ptr %9, align 8, !tbaa !7
  %45 = load ptr, ptr %6, align 8, !tbaa !7
  %46 = ptrtoint ptr %44 to i64
  %47 = ptrtoint ptr %45 to i64
  %48 = sub i64 %46, %47
  %49 = icmp sge i64 %48, 2
  br i1 %49, label %50, label %52

50:                                               ; preds = %43
  %51 = load ptr, ptr %9, align 8, !tbaa !7
  store i8 0, ptr %51, align 1, !tbaa !12
  br label %52

52:                                               ; preds = %50, %43, %38
  %53 = load ptr, ptr %6, align 8, !tbaa !7
  %54 = call ptr @strrchr(ptr noundef %53, i32 noundef 13) #8
  store ptr %54, ptr %9, align 8, !tbaa !7
  %55 = load ptr, ptr %9, align 8, !tbaa !7
  %56 = icmp ne ptr %55, null
  br i1 %56, label %57, label %66

57:                                               ; preds = %52
  %58 = load ptr, ptr %9, align 8, !tbaa !7
  %59 = load ptr, ptr %6, align 8, !tbaa !7
  %60 = ptrtoint ptr %58 to i64
  %61 = ptrtoint ptr %59 to i64
  %62 = sub i64 %60, %61
  %63 = icmp sge i64 %62, 1
  br i1 %63, label %64, label %66

64:                                               ; preds = %57
  %65 = load ptr, ptr %9, align 8, !tbaa !7
  store i8 0, ptr %65, align 1, !tbaa !12
  br label %66

66:                                               ; preds = %64, %57, %52
  %67 = call ptr @__errno_location() #7
  %68 = load i32, ptr %67, align 4, !tbaa !3
  %69 = load i32, ptr %8, align 4, !tbaa !3
  %70 = icmp ne i32 %68, %69
  br i1 %70, label %71, label %74

71:                                               ; preds = %66
  %72 = load i32, ptr %8, align 4, !tbaa !3
  %73 = call ptr @__errno_location() #7
  store i32 %72, ptr %73, align 4, !tbaa !3
  br label %74

74:                                               ; preds = %71, %66
  %75 = load ptr, ptr %6, align 8, !tbaa !7
  store ptr %75, ptr %4, align 8
  store i32 1, ptr %10, align 4
  br label %76

76:                                               ; preds = %74, %17
  call void @llvm.lifetime.end.p0(i64 8, ptr %9) #6
  call void @llvm.lifetime.end.p0(i64 4, ptr %8) #6
  %77 = load ptr, ptr %4, align 8
  ret ptr %77
}