; Function Attrs: nounwind uwtable
define hidden noundef ptr @Curl_strerror(i32 noundef %0, ptr noundef %1, i64 noundef %2) local_unnamed_addr #1 {
  %4 = alloca [256 x i8], align 16
  %5 = tail call ptr @__errno_location() #7
  %6 = load i32, ptr %5, align 4, !tbaa !3
  %.not = icmp eq i64 %2, 0
  br i1 %.not, label %29, label %7

7:                                                ; preds = %3
  store i8 0, ptr %1, align 1, !tbaa !7
  call void @llvm.lifetime.start.p0(i64 256, ptr nonnull %4) #8
  %8 = call ptr @strerror_r(i32 noundef %0, ptr noundef nonnull %4, i64 noundef 256) #8
  %.not28 = icmp eq ptr %8, null
  br i1 %.not28, label %11, label %9

9:                                                ; preds = %7
  %10 = call i32 (ptr, i64, ptr, ...) @curl_msnprintf(ptr noundef nonnull %1, i64 noundef %2, ptr noundef nonnull @.str.133, ptr noundef nonnull %8) #8
  br label %13

11:                                               ; preds = %7
  %12 = call i32 (ptr, i64, ptr, ...) @curl_msnprintf(ptr noundef nonnull %1, i64 noundef %2, ptr noundef nonnull @.str.134, i32 noundef %0) #8
  br label %13

13:                                               ; preds = %11, %9
  call void @llvm.lifetime.end.p0(i64 256, ptr nonnull %4) #8
  %14 = call ptr @strrchr(ptr noundef nonnull dereferenceable(1) %1, i32 noundef 10) #9
  %.not29 = icmp ne ptr %14, null
  %15 = ptrtoint ptr %14 to i64
  %16 = ptrtoint ptr %1 to i64
  %17 = sub i64 %15, %16
  %18 = icmp sgt i64 %17, 1
  %or.cond = and i1 %.not29, %18
  br i1 %or.cond, label %19, label %20

19:                                               ; preds = %13
  store i8 0, ptr %14, align 1, !tbaa !7
  br label %20

20:                                               ; preds = %19, %13
  %21 = call ptr @strrchr(ptr noundef nonnull dereferenceable(1) %1, i32 noundef 13) #9
  %.not30 = icmp ne ptr %21, null
  %22 = ptrtoint ptr %21 to i64
  %23 = sub i64 %22, %16
  %24 = icmp sgt i64 %23, 0
  %or.cond38 = and i1 %.not30, %24
  br i1 %or.cond38, label %25, label %26

25:                                               ; preds = %20
  store i8 0, ptr %21, align 1, !tbaa !7
  br label %26

26:                                               ; preds = %25, %20
  %27 = load i32, ptr %5, align 4, !tbaa !3
  %.not31 = icmp eq i32 %27, %6
  br i1 %.not31, label %29, label %28

28:                                               ; preds = %26
  store i32 %6, ptr %5, align 4, !tbaa !3
  br label %29

29:                                               ; preds = %26, %28, %3
  %.0 = phi ptr [ null, %3 ], [ %1, %28 ], [ %1, %26 ]
  ret ptr %.0
}